; Function Attrs: null_pointer_is_valid sspstrong uwtable
define internal void @decode_zcl_ota_upgr_time(ptr noundef %0, i32 noundef %1) #0 {
  %3 = icmp eq i32 %1, -1
  br i1 %3, label %4, label %6

4:                                                ; preds = %2
  %5 = tail call i32 (ptr, i64, i32, i64, ptr, ...) @__snprintf_chk(ptr noundef %0, i64 noundef 240, i32 noundef 2, i64 noundef -1, ptr noundef nonnull @.str.1547)
  br label %9

6:                                                ; preds = %2
  %7 = tail call ptr @signed_time_secs_to_str(ptr noundef null, i32 noundef %1)
  %8 = tail call i32 (ptr, i64, i32, i64, ptr, ...) @__snprintf_chk(ptr noundef %0, i64 noundef 240, i32 noundef 2, i64 noundef -1, ptr noundef nonnull @.str.1546, ptr noundef %7)
  tail call void @wmem_free(ptr noundef null, ptr noundef %7)
  br label %9

9:                                                ; preds = %6, %4
  ret void
}